target datalayout = "e-m:e-p270:32:32-p271:32:32-p272:64:64-i64:64-i128:128-f80:128-n8:16:32:64-S128"
target triple = "x86_64-pc-linux-gnu"

%class.OopHandle = type { ptr }
%class.GCMemoryManager = type <{ %class.MemoryManager.base, [7 x i8], i64, %class.elapsedTimer, ptr, ptr, ptr, i32, i8, [10 x i8], i8 }>
%class.MemoryManager.base = type <{ ptr, [10 x ptr], i32, [4 x i8], ptr, %class.OopHandle, i8 }>
%class.elapsedTimer = type <{ i64, i64, i8, [7 x i8] }>
%class.GrowableArrayBase = type { i32, i32 }

@_ZN13MemoryService11_pools_listE = external global ptr, align 8
@_ZN10GCStatInfoC1Ei = hidden unnamed_addr alias void (ptr, i32), ptr @_ZN10GCStatInfoC2Ei

; Function Attrs: mustprogress nounwind uwtable
define linkonce_odr hidden noundef i32 @_ZNK17GrowableArrayBase6lengthEv(ptr noundef nonnull align 4 dereferenceable(8) %0) #1 comdat align 2 {
  %2 = alloca ptr, align 8
  store ptr %0, ptr %2, align 8
  %3 = load ptr, ptr %2, align 8
  %4 = getelementptr inbounds %class.GrowableArrayBase, ptr %3, i32 0, i32 0
  %5 = load i32, ptr %4, align 4
  ret i32 %5
}

; Function Attrs: mustprogress nounwind uwtable
define linkonce_odr hidden noundef i32 @_ZN13MemoryService16num_memory_poolsEv() #1 comdat align 2 {
  %1 = load ptr, ptr @_ZN13MemoryService11_pools_listE, align 8
  %2 = call noundef i32 @_ZNK17GrowableArrayBase6lengthEv(ptr noundef nonnull align 4 dereferenceable(8) %1)
  ret i32 %2
}

; Function Attrs: mustprogress nounwind uwtable
define hidden void @_ZN15GCMemoryManager23initialize_gc_stat_infoEv(ptr noundef nonnull align 8 dereferenceable(191) %0) #1 align 2 {
  %2 = alloca i64, align 8
  %3 = alloca i8, align 1
  %4 = alloca i64, align 8
  %5 = alloca i8, align 1
  %6 = alloca i64, align 8
  %7 = alloca i64, align 8
  %8 = alloca ptr, align 8
  store ptr %0, ptr %8, align 8
  %9 = load ptr, ptr %8, align 8
  store i64 48, ptr %6, align 8
  %10 = load i64, ptr %6, align 8
  store i64 %10, ptr %4, align 8
  store i8 5, ptr %5, align 1
  %11 = load i64, ptr %4, align 8
  %12 = load i8, ptr %5, align 1
  %13 = call noundef ptr @_Z12AllocateHeapm8MEMFLAGSN17AllocFailStrategy13AllocFailEnumE(i64 noundef %11, i8 noundef zeroext %12, i32 noundef 0) #9
  %14 = call noundef i32 @_ZN13MemoryService16num_memory_poolsEv()
  call void @_ZN10GCStatInfoC1Ei(ptr noundef nonnull align 8 dereferenceable(44) %13, i32 noundef %14)
  %15 = getelementptr inbounds %class.GCMemoryManager, ptr %9, i32 0, i32 4
  store ptr %13, ptr %15, align 8
  store i64 48, ptr %7, align 8
  %16 = load i64, ptr %7, align 8
  store i64 %16, ptr %2, align 8
  store i8 5, ptr %3, align 1
  %17 = load i64, ptr %2, align 8
  %18 = load i8, ptr %3, align 1
  %19 = call noundef ptr @_Z12AllocateHeapm8MEMFLAGSN17AllocFailStrategy13AllocFailEnumE(i64 noundef %17, i8 noundef zeroext %18, i32 noundef 0) #9
  %20 = call noundef i32 @_ZN13MemoryService16num_memory_poolsEv()
  call void @_ZN10GCStatInfoC1Ei(ptr noundef nonnull align 8 dereferenceable(44) %19, i32 noundef %20)
  %21 = getelementptr inbounds %class.GCMemoryManager, ptr %9, i32 0, i32 6
  store ptr %19, ptr %21, align 8
  ret void
}