; Function Attrs: mustprogress nounwind uwtable
define hidden void @_ZN15GCMemoryManager23initialize_gc_stat_infoEv(ptr nocapture noundef nonnull writeonly align 8 dereferenceable(191) %0) local_unnamed_addr #2 align 2 {
  %2 = tail call noundef ptr @_Z12AllocateHeapm8MEMFLAGSN17AllocFailStrategy13AllocFailEnumE(i64 noundef 48, i8 noundef zeroext 5, i32 noundef 0) #13
  %3 = load ptr, ptr @_ZN13MemoryService11_pools_listE, align 8
  %4 = load i32, ptr %3, align 4
  %5 = sext i32 %4 to i64
  %6 = shl nsw i64 %5, 5
  %7 = tail call noundef ptr @_Z12AllocateHeapm8MEMFLAGSN17AllocFailStrategy13AllocFailEnumE(i64 noundef %6, i8 noundef zeroext 9, i32 noundef 0) #13
  %8 = getelementptr inbounds i8, ptr %2, i64 24
  store ptr %7, ptr %8, align 8
  %9 = tail call noundef ptr @_Z12AllocateHeapm8MEMFLAGSN17AllocFailStrategy13AllocFailEnumE(i64 noundef %6, i8 noundef zeroext 9, i32 noundef 0) #13
  %10 = getelementptr inbounds i8, ptr %2, i64 32
  store ptr %9, ptr %10, align 8
  %11 = getelementptr inbounds i8, ptr %2, i64 40
  store i32 %4, ptr %11, align 8
  tail call void @llvm.memset.p0.i64(ptr noundef nonnull align 8 dereferenceable(24) %2, i8 0, i64 24, i1 false)
  %12 = icmp sgt i32 %4, 0
  br i1 %12, label %.lr.ph.i.i, label %_ZN10GCStatInfoC2Ei.exit

.preheader.i.i:                                   ; preds = %.lr.ph.i.i
  %13 = icmp sgt i32 %16, 0
  br i1 %13, label %.lr.ph9.i.i, label %_ZN10GCStatInfoC2Ei.exit

.lr.ph.i.i:                                       ; preds = %1, %.lr.ph.i.i
  %indvars.iv.i.i = phi i64 [ %indvars.iv.next.i.i, %.lr.ph.i.i ], [ 0, %1 ]
  %14 = load ptr, ptr %8, align 8
  %15 = getelementptr inbounds %class.MemoryUsage, ptr %14, i64 %indvars.iv.i.i
  tail call void @llvm.memset.p0.i64(ptr noundef nonnull align 8 dereferenceable(32) %15, i8 0, i64 32, i1 false)
  %indvars.iv.next.i.i = add nuw nsw i64 %indvars.iv.i.i, 1
  %16 = load i32, ptr %11, align 8
  %17 = sext i32 %16 to i64
  %18 = icmp slt i64 %indvars.iv.next.i.i, %17
  br i1 %18, label %.lr.ph.i.i, label %.preheader.i.i, !llvm.loop !7

.lr.ph9.i.i:                                      ; preds = %.preheader.i.i, %.lr.ph9.i.i
  %indvars.iv11.i.i = phi i64 [ %indvars.iv.next12.i.i, %.lr.ph9.i.i ], [ 0, %.preheader.i.i ]
  %19 = load ptr, ptr %10, align 8
  %20 = getelementptr inbounds %class.MemoryUsage, ptr %19, i64 %indvars.iv11.i.i
  tail call void @llvm.memset.p0.i64(ptr noundef nonnull align 8 dereferenceable(32) %20, i8 0, i64 32, i1 false)
  %indvars.iv.next12.i.i = add nuw nsw i64 %indvars.iv11.i.i, 1
  %21 = load i32, ptr %11, align 8
  %22 = sext i32 %21 to i64
  %23 = icmp slt i64 %indvars.iv.next12.i.i, %22
  br i1 %23, label %.lr.ph9.i.i, label %_ZN10GCStatInfoC2Ei.exit, !llvm.loop !9

_ZN10GCStatInfoC2Ei.exit:                         ; preds = %.lr.ph9.i.i, %1, %.preheader.i.i
  %24 = getelementptr inbounds i8, ptr %0, i64 152
  store ptr %2, ptr %24, align 8
  %25 = tail call noundef ptr @_Z12AllocateHeapm8MEMFLAGSN17AllocFailStrategy13AllocFailEnumE(i64 noundef 48, i8 noundef zeroext 5, i32 noundef 0) #13
  %26 = load ptr, ptr @_ZN13MemoryService11_pools_listE, align 8
  %27 = load i32, ptr %26, align 4
  %28 = sext i32 %27 to i64
  %29 = shl nsw i64 %28, 5
  %30 = tail call noundef ptr @_Z12AllocateHeapm8MEMFLAGSN17AllocFailStrategy13AllocFailEnumE(i64 noundef %29, i8 noundef zeroext 9, i32 noundef 0) #13
  %31 = getelementptr inbounds i8, ptr %25, i64 24
  store ptr %30, ptr %31, align 8
  %32 = tail call noundef ptr @_Z12AllocateHeapm8MEMFLAGSN17AllocFailStrategy13AllocFailEnumE(i64 noundef %29, i8 noundef zeroext 9, i32 noundef 0) #13
  %33 = getelementptr inbounds i8, ptr %25, i64 32
  store ptr %32, ptr %33, align 8
  %34 = getelementptr inbounds i8, ptr %25, i64 40
  store i32 %27, ptr %34, align 8
  tail call void @llvm.memset.p0.i64(ptr noundef nonnull align 8 dereferenceable(24) %25, i8 0, i64 24, i1 false)
  %35 = icmp sgt i32 %27, 0
  br i1 %35, label %.lr.ph.i.i6, label %_ZN10GCStatInfoC2Ei.exit13

.preheader.i.i9:                                  ; preds = %.lr.ph.i.i6
  %36 = icmp sgt i32 %39, 0
  br i1 %36, label %.lr.ph9.i.i10, label %_ZN10GCStatInfoC2Ei.exit13

.lr.ph.i.i6:                                      ; preds = %_ZN10GCStatInfoC2Ei.exit, %.lr.ph.i.i6
  %indvars.iv.i.i7 = phi i64 [ %indvars.iv.next.i.i8, %.lr.ph.i.i6 ], [ 0, %_ZN10GCStatInfoC2Ei.exit ]
  %37 = load ptr, ptr %31, align 8
  %38 = getelementptr inbounds %class.MemoryUsage, ptr %37, i64 %indvars.iv.i.i7
  tail call void @llvm.memset.p0.i64(ptr noundef nonnull align 8 dereferenceable(32) %38, i8 0, i64 32, i1 false)
  %indvars.iv.next.i.i8 = add nuw nsw i64 %indvars.iv.i.i7, 1
  %39 = load i32, ptr %34, align 8
  %40 = sext i32 %39 to i64
  %41 = icmp slt i64 %indvars.iv.next.i.i8, %40
  br i1 %41, label %.lr.ph.i.i6, label %.preheader.i.i9, !llvm.loop !7

.lr.ph9.i.i10:                                    ; preds = %.preheader.i.i9, %.lr.ph9.i.i10
  %indvars.iv11.i.i11 = phi i64 [ %indvars.iv.next12.i.i12, %.lr.ph9.i.i10 ], [ 0, %.preheader.i.i9 ]
  %42 = load ptr, ptr %33, align 8
  %43 = getelementptr inbounds %class.MemoryUsage, ptr %42, i64 %indvars.iv11.i.i11
  tail call void @llvm.memset.p0.i64(ptr noundef nonnull align 8 dereferenceable(32) %43, i8 0, i64 32, i1 false)
  %indvars.iv.next12.i.i12 = add nuw nsw i64 %indvars.iv11.i.i11, 1
  %44 = load i32, ptr %34, align 8
  %45 = sext i32 %44 to i64
  %46 = icmp slt i64 %indvars.iv.next12.i.i12, %45
  br i1 %46, label %.lr.ph9.i.i10, label %_ZN10GCStatInfoC2Ei.exit13, !llvm.loop !9

_ZN10GCStatInfoC2Ei.exit13:                       ; preds = %.lr.ph9.i.i10, %_ZN10GCStatInfoC2Ei.exit, %.preheader.i.i9
  %47 = getelementptr inbounds i8, ptr %0, i64 168
  store ptr %25, ptr %47, align 8
  ret void
}